target datalayout = "e-m:e-p270:32:32-p271:32:32-p272:64:64-i64:64-i128:128-f80:128-n8:16:32:64-S128"
target triple = "x86_64-pc-linux-gnu"

%"class.cv::Matx.0" = type { [16 x float] }
%"class.cv::Vec.1" = type { %"class.cv::Matx.2" }
%"class.cv::Matx.2" = type { [4 x i32] }
%"class.cv::kinfu::HashTSDFVolume" = type { %"class.cv::kinfu::Volume.base", i32, float, float, i32, i32, float, i8, %"class.cv::Vec.1" }
%"class.cv::kinfu::Volume.base" = type <{ ptr, float, float, %"class.cv::Affine3", float }>
%"class.cv::Affine3" = type { %"class.cv::Matx.0" }
%"class.cv::kinfu::HashTSDFVolumeCPU" = type <{ %"class.cv::kinfu::HashTSDFVolume", %"class.cv::Vec.3", %"class.cv::Mat", %"class.std::unordered_map", %"class.cv::Mat", i32, [4 x i8] }>
%"class.cv::Vec.3" = type { %"class.cv::Matx.4" }
%"class.cv::Matx.4" = type { [6 x float] }
%"class.std::unordered_map" = type { %"class.std::_Hashtable" }
%"class.std::_Hashtable" = type { ptr, i64, %"struct.std::__detail::_Hash_node_base", i64, %"struct.std::__detail::_Prime_rehash_policy", ptr }
%"struct.std::__detail::_Hash_node_base" = type { ptr }
%"struct.std::__detail::_Prime_rehash_policy" = type { float, i64 }
%"class.cv::Mat" = type { i32, i32, i32, i32, ptr, ptr, ptr, ptr, ptr, ptr, %"struct.cv::MatSize", %"struct.cv::MatStep" }
%"struct.cv::MatSize" = type { ptr }
%"struct.cv::MatStep" = type { ptr, [2 x i64] }
%"class.cv::Vec.10" = type { %"class.cv::Matx.11" }
%"class.cv::Matx.11" = type { [3 x i32] }
%"struct.std::__detail::_Node_iterator_base.26" = type { ptr }
%"struct.cv::kinfu::VolumeUnit" = type <{ %"class.cv::Vec.10", i32, %"class.cv::Matx.0", i32, i8, [3 x i8] }>
%"struct.std::pair.27" = type { %"class.cv::Vec.10", %"struct.cv::kinfu::VolumeUnit" }
%"struct.std::__detail::_Node_const_iterator" = type { %"struct.std::__detail::_Node_iterator_base.26" }
%"struct.std::__detail::_Hash_node_value_base" = type { %"struct.__gnu_cxx::__aligned_buffer" }
%"struct.__gnu_cxx::__aligned_buffer" = type { %"union.std::aligned_storage<100, 4>::type" }
%"union.std::aligned_storage<100, 4>::type" = type { [100 x i8] }

; Function Attrs: mustprogress nounwind uwtable
define linkonce_odr hidden noundef ptr @_ZN9__gnu_cxx16__aligned_bufferISt4pairIKN2cv3VecIiLi3EEENS2_5kinfu10VolumeUnitEEE7_M_addrEv(ptr noundef nonnull align 4 dereferenceable(100) %0) #10 comdat align 2 {
  %2 = alloca ptr, align 8
  store ptr %0, ptr %2, align 8, !tbaa !282
  %3 = load ptr, ptr %2, align 8
  %4 = getelementptr inbounds nuw %"struct.__gnu_cxx::__aligned_buffer", ptr %3, i32 0, i32 0
  ret ptr %4
}

; Function Attrs: mustprogress nounwind uwtable
define linkonce_odr hidden noundef ptr @_ZN9__gnu_cxx16__aligned_bufferISt4pairIKN2cv3VecIiLi3EEENS2_5kinfu10VolumeUnitEEE6_M_ptrEv(ptr noundef nonnull align 4 dereferenceable(100) %0) #10 comdat align 2 {
  %2 = alloca ptr, align 8
  store ptr %0, ptr %2, align 8, !tbaa !282
  %3 = load ptr, ptr %2, align 8
  %4 = call noundef ptr @_ZN9__gnu_cxx16__aligned_bufferISt4pairIKN2cv3VecIiLi3EEENS2_5kinfu10VolumeUnitEEE7_M_addrEv(ptr noundef nonnull align 4 dereferenceable(100) %3) #3
  ret ptr %4
}

; Function Attrs: mustprogress nounwind uwtable
define linkonce_odr hidden void @_ZNSt8__detail19_Node_iterator_baseISt4pairIKN2cv3VecIiLi3EEENS2_5kinfu10VolumeUnitEELb0EEC2EPNS_10_Hash_nodeIS8_Lb0EEE(ptr noundef nonnull align 8 dereferenceable(8) %0, ptr noundef %1) unnamed_addr #10 comdat align 2 {
  %3 = alloca ptr, align 8
  %4 = alloca ptr, align 8
  store ptr %0, ptr %3, align 8, !tbaa !179
  store ptr %1, ptr %4, align 8, !tbaa !278
  %5 = load ptr, ptr %3, align 8
  %6 = getelementptr inbounds nuw %"struct.std::__detail::_Node_iterator_base.26", ptr %5, i32 0, i32 0
  %7 = load ptr, ptr %4, align 8, !tbaa !278
  store ptr %7, ptr %6, align 8, !tbaa !173
  ret void
}

; Function Attrs: mustprogress nounwind uwtable
define linkonce_odr hidden noundef ptr @_ZNKSt8__detail10_Hash_nodeISt4pairIKN2cv3VecIiLi3EEENS2_5kinfu10VolumeUnitEELb0EE7_M_nextEv(ptr noundef nonnull align 8 dereferenceable(108) %0) #10 comdat align 2 {
  %2 = alloca ptr, align 8
  store ptr %0, ptr %2, align 8, !tbaa !278
  %3 = load ptr, ptr %2, align 8
  %4 = getelementptr inbounds nuw %"struct.std::__detail::_Hash_node_base", ptr %3, i32 0, i32 0
  %5 = load ptr, ptr %4, align 8, !tbaa !260
  ret ptr %5
}

; Function Attrs: mustprogress nounwind uwtable
define linkonce_odr hidden noundef ptr @_ZNSt8__detail21_Hash_node_value_baseISt4pairIKN2cv3VecIiLi3EEENS2_5kinfu10VolumeUnitEEE9_M_valptrEv(ptr noundef nonnull align 4 dereferenceable(100) %0) #10 comdat align 2 {
  %2 = alloca ptr, align 8
  store ptr %0, ptr %2, align 8, !tbaa !280
  %3 = load ptr, ptr %2, align 8
  %4 = getelementptr inbounds nuw %"struct.std::__detail::_Hash_node_value_base", ptr %3, i32 0, i32 0
  %5 = call noundef ptr @_ZN9__gnu_cxx16__aligned_bufferISt4pairIKN2cv3VecIiLi3EEENS2_5kinfu10VolumeUnitEEE6_M_ptrEv(ptr noundef nonnull align 4 dereferenceable(100) %4) #3
  ret ptr %5
}

; Function Attrs: mustprogress nounwind uwtable
define linkonce_odr hidden void @_ZNSt8__detail20_Node_const_iteratorISt4pairIKN2cv3VecIiLi3EEENS2_5kinfu10VolumeUnitEELb0ELb0EEC2EPNS_10_Hash_nodeIS8_Lb0EEE(ptr noundef nonnull align 8 dereferenceable(8) %0, ptr noundef %1) unnamed_addr #10 comdat align 2 {
  %3 = alloca ptr, align 8
  %4 = alloca ptr, align 8
  store ptr %0, ptr %3, align 8, !tbaa !196
  store ptr %1, ptr %4, align 8, !tbaa !278
  %5 = load ptr, ptr %3, align 8
  %6 = load ptr, ptr %4, align 8, !tbaa !278
  call void @_ZNSt8__detail19_Node_iterator_baseISt4pairIKN2cv3VecIiLi3EEENS2_5kinfu10VolumeUnitEELb0EEC2EPNS_10_Hash_nodeIS8_Lb0EEE(ptr noundef nonnull align 8 dereferenceable(8) %5, ptr noundef %6) #3
  ret void
}

; Function Attrs: mustprogress nounwind uwtable
define linkonce_odr hidden noundef ptr @_ZNKSt10_HashtableIN2cv3VecIiLi3EEESt4pairIKS2_NS0_5kinfu10VolumeUnitEESaIS7_ENSt8__detail10_Select1stESt8equal_toIS2_ENS5_9tsdf_hashENS9_18_Mod_range_hashingENS9_20_Default_ranged_hashENS9_20_Prime_rehash_policyENS9_17_Hashtable_traitsILb0ELb0ELb1EEEE8_M_beginEv(ptr noundef nonnull align 8 dereferenceable(56) %0) #10 comdat align 2 {
  %2 = alloca ptr, align 8
  store ptr %0, ptr %2, align 8, !tbaa !249
  %3 = load ptr, ptr %2, align 8
  %4 = getelementptr inbounds nuw %"class.std::_Hashtable", ptr %3, i32 0, i32 2
  %5 = getelementptr inbounds nuw %"struct.std::__detail::_Hash_node_base", ptr %4, i32 0, i32 0
  %6 = load ptr, ptr %5, align 8, !tbaa !277
  ret ptr %6
}

; Function Attrs: mustprogress nounwind uwtable
define linkonce_odr hidden void @_ZNSt8__detail19_Node_iterator_baseISt4pairIKN2cv3VecIiLi3EEENS2_5kinfu10VolumeUnitEELb0EE7_M_incrEv(ptr noundef nonnull align 8 dereferenceable(8) %0) #10 comdat align 2 {
  %2 = alloca ptr, align 8
  store ptr %0, ptr %2, align 8, !tbaa !179
  %3 = load ptr, ptr %2, align 8
  %4 = getelementptr inbounds nuw %"struct.std::__detail::_Node_iterator_base.26", ptr %3, i32 0, i32 0
  %5 = load ptr, ptr %4, align 8, !tbaa !173
  %6 = call noundef ptr @_ZNKSt8__detail10_Hash_nodeISt4pairIKN2cv3VecIiLi3EEENS2_5kinfu10VolumeUnitEELb0EE7_M_nextEv(ptr noundef nonnull align 8 dereferenceable(108) %5) #3
  %7 = getelementptr inbounds nuw %"struct.std::__detail::_Node_iterator_base.26", ptr %3, i32 0, i32 0
  store ptr %6, ptr %7, align 8, !tbaa !173
  ret void
}

; Function Attrs: mustprogress nounwind uwtable
define linkonce_odr hidden noundef nonnull align 4 dereferenceable(100) ptr @_ZNSt8__detail21_Hash_node_value_baseISt4pairIKN2cv3VecIiLi3EEENS2_5kinfu10VolumeUnitEEE4_M_vEv(ptr noundef nonnull align 4 dereferenceable(100) %0) #10 comdat align 2 {
  %2 = alloca ptr, align 8
  store ptr %0, ptr %2, align 8, !tbaa !280
  %3 = load ptr, ptr %2, align 8
  %4 = call noundef ptr @_ZNSt8__detail21_Hash_node_value_baseISt4pairIKN2cv3VecIiLi3EEENS2_5kinfu10VolumeUnitEEE9_M_valptrEv(ptr noundef nonnull align 4 dereferenceable(100) %3) #3
  ret ptr %4
}

; Function Attrs: mustprogress nounwind uwtable
define linkonce_odr hidden ptr @_ZNKSt10_HashtableIN2cv3VecIiLi3EEESt4pairIKS2_NS0_5kinfu10VolumeUnitEESaIS7_ENSt8__detail10_Select1stESt8equal_toIS2_ENS5_9tsdf_hashENS9_18_Mod_range_hashingENS9_20_Default_ranged_hashENS9_20_Prime_rehash_policyENS9_17_Hashtable_traitsILb0ELb0ELb1EEEE3endEv(ptr noundef nonnull align 8 dereferenceable(56) %0) #10 comdat align 2 {
  %2 = alloca %"struct.std::__detail::_Node_const_iterator", align 8
  %3 = alloca ptr, align 8
  store ptr %0, ptr %3, align 8, !tbaa !249
  call void @_ZNSt8__detail20_Node_const_iteratorISt4pairIKN2cv3VecIiLi3EEENS2_5kinfu10VolumeUnitEELb0ELb0EEC2EPNS_10_Hash_nodeIS8_Lb0EEE(ptr noundef nonnull align 8 dereferenceable(8) %2, ptr noundef null) #3
  %4 = getelementptr inbounds nuw %"struct.std::__detail::_Node_const_iterator", ptr %2, i32 0, i32 0
  %5 = getelementptr inbounds nuw %"struct.std::__detail::_Node_iterator_base.26", ptr %4, i32 0, i32 0
  %6 = load ptr, ptr %5, align 8
  ret ptr %6
}

; Function Attrs: mustprogress nounwind uwtable
define linkonce_odr hidden ptr @_ZNKSt10_HashtableIN2cv3VecIiLi3EEESt4pairIKS2_NS0_5kinfu10VolumeUnitEESaIS7_ENSt8__detail10_Select1stESt8equal_toIS2_ENS5_9tsdf_hashENS9_18_Mod_range_hashingENS9_20_Default_ranged_hashENS9_20_Prime_rehash_policyENS9_17_Hashtable_traitsILb0ELb0ELb1EEEE5beginEv(ptr noundef nonnull align 8 dereferenceable(56) %0) #10 comdat align 2 {
  %2 = alloca %"struct.std::__detail::_Node_const_iterator", align 8
  %3 = alloca ptr, align 8
  store ptr %0, ptr %3, align 8, !tbaa !249
  %4 = load ptr, ptr %3, align 8
  %5 = call noundef ptr @_ZNKSt10_HashtableIN2cv3VecIiLi3EEESt4pairIKS2_NS0_5kinfu10VolumeUnitEESaIS7_ENSt8__detail10_Select1stESt8equal_toIS2_ENS5_9tsdf_hashENS9_18_Mod_range_hashingENS9_20_Default_ranged_hashENS9_20_Prime_rehash_policyENS9_17_Hashtable_traitsILb0ELb0ELb1EEEE8_M_beginEv(ptr noundef nonnull align 8 dereferenceable(56) %4)
  call void @_ZNSt8__detail20_Node_const_iteratorISt4pairIKN2cv3VecIiLi3EEENS2_5kinfu10VolumeUnitEELb0ELb0EEC2EPNS_10_Hash_nodeIS8_Lb0EEE(ptr noundef nonnull align 8 dereferenceable(8) %2, ptr noundef %5) #3
  %6 = getelementptr inbounds nuw %"struct.std::__detail::_Node_const_iterator", ptr %2, i32 0, i32 0
  %7 = getelementptr inbounds nuw %"struct.std::__detail::_Node_iterator_base.26", ptr %6, i32 0, i32 0
  %8 = load ptr, ptr %7, align 8
  ret ptr %8
}

; Function Attrs: mustprogress nounwind uwtable
define linkonce_odr hidden noundef nonnull align 8 dereferenceable(8) ptr @_ZNSt8__detail20_Node_const_iteratorISt4pairIKN2cv3VecIiLi3EEENS2_5kinfu10VolumeUnitEELb0ELb0EEppEv(ptr noundef nonnull align 8 dereferenceable(8) %0) #10 comdat align 2 {
  %2 = alloca ptr, align 8
  store ptr %0, ptr %2, align 8, !tbaa !196
  %3 = load ptr, ptr %2, align 8
  call void @_ZNSt8__detail19_Node_iterator_baseISt4pairIKN2cv3VecIiLi3EEENS2_5kinfu10VolumeUnitEELb0EE7_M_incrEv(ptr noundef nonnull align 8 dereferenceable(8) %3) #3
  ret ptr %3
}

; Function Attrs: mustprogress nounwind uwtable
define linkonce_odr hidden noundef nonnull align 4 dereferenceable(100) ptr @_ZNKSt8__detail20_Node_const_iteratorISt4pairIKN2cv3VecIiLi3EEENS2_5kinfu10VolumeUnitEELb0ELb0EEdeEv(ptr noundef nonnull align 8 dereferenceable(8) %0) #10 comdat align 2 {
  %2 = alloca ptr, align 8
  store ptr %0, ptr %2, align 8, !tbaa !196
  %3 = load ptr, ptr %2, align 8
  %4 = getelementptr inbounds nuw %"struct.std::__detail::_Node_iterator_base.26", ptr %3, i32 0, i32 0
  %5 = load ptr, ptr %4, align 8, !tbaa !173
  %6 = getelementptr inbounds i8, ptr %5, i64 8
  %7 = call noundef nonnull align 4 dereferenceable(100) ptr @_ZNSt8__detail21_Hash_node_value_baseISt4pairIKN2cv3VecIiLi3EEENS2_5kinfu10VolumeUnitEEE4_M_vEv(ptr noundef nonnull align 4 dereferenceable(100) %6) #3
  ret ptr %7
}

; Function Attrs: mustprogress nounwind uwtable
define linkonce_odr noundef zeroext i1 @_ZNSt8__detailneERKNS_19_Node_iterator_baseISt4pairIKN2cv3VecIiLi3EEENS2_5kinfu10VolumeUnitEELb0EEESB_(ptr noundef nonnull align 8 dereferenceable(8) %0, ptr noundef nonnull align 8 dereferenceable(8) %1) #10 comdat {
  %3 = alloca ptr, align 8
  %4 = alloca ptr, align 8
  store ptr %0, ptr %3, align 8, !tbaa !179
  store ptr %1, ptr %4, align 8, !tbaa !179
  %5 = load ptr, ptr %3, align 8, !tbaa !179
  %6 = getelementptr inbounds nuw %"struct.std::__detail::_Node_iterator_base.26", ptr %5, i32 0, i32 0
  %7 = load ptr, ptr %6, align 8, !tbaa !173
  %8 = load ptr, ptr %4, align 8, !tbaa !179
  %9 = getelementptr inbounds nuw %"struct.std::__detail::_Node_iterator_base.26", ptr %8, i32 0, i32 0
  %10 = load ptr, ptr %9, align 8, !tbaa !173
  %11 = icmp ne ptr %7, %10
  ret i1 %11
}

; Function Attrs: mustprogress nounwind uwtable
define linkonce_odr hidden ptr @_ZNKSt13unordered_mapIN2cv3VecIiLi3EEENS0_5kinfu10VolumeUnitENS3_9tsdf_hashESt8equal_toIS2_ESaISt4pairIKS2_S4_EEE3endEv(ptr noundef nonnull align 8 dereferenceable(56) %0) #10 comdat align 2 {
  %2 = alloca %"struct.std::__detail::_Node_const_iterator", align 8
  %3 = alloca ptr, align 8
  store ptr %0, ptr %3, align 8, !tbaa !56
  %4 = load ptr, ptr %3, align 8
  %5 = getelementptr inbounds nuw %"class.std::unordered_map", ptr %4, i32 0, i32 0
  %6 = call ptr @_ZNKSt10_HashtableIN2cv3VecIiLi3EEESt4pairIKS2_NS0_5kinfu10VolumeUnitEESaIS7_ENSt8__detail10_Select1stESt8equal_toIS2_ENS5_9tsdf_hashENS9_18_Mod_range_hashingENS9_20_Default_ranged_hashENS9_20_Prime_rehash_policyENS9_17_Hashtable_traitsILb0ELb0ELb1EEEE3endEv(ptr noundef nonnull align 8 dereferenceable(56) %5) #3
  %7 = getelementptr inbounds nuw %"struct.std::__detail::_Node_const_iterator", ptr %2, i32 0, i32 0
  %8 = getelementptr inbounds nuw %"struct.std::__detail::_Node_iterator_base.26", ptr %7, i32 0, i32 0
  store ptr %6, ptr %8, align 8
  %9 = getelementptr inbounds nuw %"struct.std::__detail::_Node_const_iterator", ptr %2, i32 0, i32 0
  %10 = getelementptr inbounds nuw %"struct.std::__detail::_Node_iterator_base.26", ptr %9, i32 0, i32 0
  %11 = load ptr, ptr %10, align 8
  ret ptr %11
}

; Function Attrs: mustprogress nounwind uwtable
define linkonce_odr hidden ptr @_ZNKSt13unordered_mapIN2cv3VecIiLi3EEENS0_5kinfu10VolumeUnitENS3_9tsdf_hashESt8equal_toIS2_ESaISt4pairIKS2_S4_EEE5beginEv(ptr noundef nonnull align 8 dereferenceable(56) %0) #10 comdat align 2 {
  %2 = alloca %"struct.std::__detail::_Node_const_iterator", align 8
  %3 = alloca ptr, align 8
  store ptr %0, ptr %3, align 8, !tbaa !56
  %4 = load ptr, ptr %3, align 8
  %5 = getelementptr inbounds nuw %"class.std::unordered_map", ptr %4, i32 0, i32 0
  %6 = call ptr @_ZNKSt10_HashtableIN2cv3VecIiLi3EEESt4pairIKS2_NS0_5kinfu10VolumeUnitEESaIS7_ENSt8__detail10_Select1stESt8equal_toIS2_ENS5_9tsdf_hashENS9_18_Mod_range_hashingENS9_20_Default_ranged_hashENS9_20_Prime_rehash_policyENS9_17_Hashtable_traitsILb0ELb0ELb1EEEE5beginEv(ptr noundef nonnull align 8 dereferenceable(56) %5) #3
  %7 = getelementptr inbounds nuw %"struct.std::__detail::_Node_const_iterator", ptr %2, i32 0, i32 0
  %8 = getelementptr inbounds nuw %"struct.std::__detail::_Node_iterator_base.26", ptr %7, i32 0, i32 0
  store ptr %6, ptr %8, align 8
  %9 = getelementptr inbounds nuw %"struct.std::__detail::_Node_const_iterator", ptr %2, i32 0, i32 0
  %10 = getelementptr inbounds nuw %"struct.std::__detail::_Node_iterator_base.26", ptr %9, i32 0, i32 0
  %11 = load ptr, ptr %10, align 8
  ret ptr %11
}

; Function Attrs: mustprogress nounwind uwtable
define hidden noundef i32 @_ZNK2cv5kinfu17HashTSDFVolumeCPU16getVisibleBlocksEii(ptr noundef nonnull align 8 dereferenceable(404) %0, i32 noundef %1, i32 noundef %2) unnamed_addr #10 align 2 {
  %4 = alloca ptr, align 8
  %5 = alloca i32, align 4
  %6 = alloca i32, align 4
  %7 = alloca i32, align 4
  %8 = alloca ptr, align 8
  %9 = alloca %"struct.std::__detail::_Node_const_iterator", align 8
  %10 = alloca %"struct.std::__detail::_Node_const_iterator", align 8
  %11 = alloca ptr, align 8
  %12 = alloca ptr, align 8
  store ptr %0, ptr %4, align 8, !tbaa !50
  store i32 %1, ptr %5, align 4, !tbaa !12
  store i32 %2, ptr %6, align 4, !tbaa !12
  %13 = load ptr, ptr %4, align 8
  call void @llvm.lifetime.start.p0(i64 4, ptr %7) #3
  store i32 0, ptr %7, align 4, !tbaa !12
  call void @llvm.lifetime.start.p0(i64 8, ptr %8) #3
  %14 = getelementptr inbounds nuw %"class.cv::kinfu::HashTSDFVolumeCPU", ptr %13, i32 0, i32 3
  store ptr %14, ptr %8, align 8, !tbaa !56
  call void @llvm.lifetime.start.p0(i64 8, ptr %9) #3
  %15 = load ptr, ptr %8, align 8, !tbaa !56
  %16 = call ptr @_ZNKSt13unordered_mapIN2cv3VecIiLi3EEENS0_5kinfu10VolumeUnitENS3_9tsdf_hashESt8equal_toIS2_ESaISt4pairIKS2_S4_EEE5beginEv(ptr noundef nonnull align 8 dereferenceable(56) %15) #3
  %17 = getelementptr inbounds nuw %"struct.std::__detail::_Node_const_iterator", ptr %9, i32 0, i32 0
  %18 = getelementptr inbounds nuw %"struct.std::__detail::_Node_iterator_base.26", ptr %17, i32 0, i32 0
  store ptr %16, ptr %18, align 8
  call void @llvm.lifetime.start.p0(i64 8, ptr %10) #3
  %19 = load ptr, ptr %8, align 8, !tbaa !56
  %20 = call ptr @_ZNKSt13unordered_mapIN2cv3VecIiLi3EEENS0_5kinfu10VolumeUnitENS3_9tsdf_hashESt8equal_toIS2_ESaISt4pairIKS2_S4_EEE3endEv(ptr noundef nonnull align 8 dereferenceable(56) %19) #3
  %21 = getelementptr inbounds nuw %"struct.std::__detail::_Node_const_iterator", ptr %10, i32 0, i32 0
  %22 = getelementptr inbounds nuw %"struct.std::__detail::_Node_iterator_base.26", ptr %21, i32 0, i32 0
  store ptr %20, ptr %22, align 8
  br label %23

23:                                               ; preds = %41, %3
  %24 = call noundef zeroext i1 @_ZNSt8__detailneERKNS_19_Node_iterator_baseISt4pairIKN2cv3VecIiLi3EEENS2_5kinfu10VolumeUnitEELb0EEESB_(ptr noundef nonnull align 8 dereferenceable(8) %9, ptr noundef nonnull align 8 dereferenceable(8) %10) #3
  br i1 %24, label %26, label %25

25:                                               ; preds = %23
  call void @llvm.lifetime.end.p0(i64 8, ptr %10) #3
  call void @llvm.lifetime.end.p0(i64 8, ptr %9) #3
  call void @llvm.lifetime.end.p0(i64 8, ptr %8) #3
  br label %43

26:                                               ; preds = %23
  call void @llvm.lifetime.start.p0(i64 8, ptr %11) #3
  %27 = call noundef nonnull align 4 dereferenceable(100) ptr @_ZNKSt8__detail20_Node_const_iteratorISt4pairIKN2cv3VecIiLi3EEENS2_5kinfu10VolumeUnitEELb0ELb0EEdeEv(ptr noundef nonnull align 8 dereferenceable(8) %9) #3
  store ptr %27, ptr %11, align 8, !tbaa !122
  call void @llvm.lifetime.start.p0(i64 8, ptr %12) #3
  %28 = load ptr, ptr %11, align 8, !tbaa !122
  %29 = getelementptr inbounds nuw %"struct.std::pair.27", ptr %28, i32 0, i32 1
  store ptr %29, ptr %12, align 8, !tbaa !114
  %30 = load ptr, ptr %12, align 8, !tbaa !114
  %31 = getelementptr inbounds nuw %"struct.cv::kinfu::VolumeUnit", ptr %30, i32 0, i32 3
  %32 = load i32, ptr %31, align 4, !tbaa !120
  %33 = load i32, ptr %5, align 4, !tbaa !12
  %34 = load i32, ptr %6, align 4, !tbaa !12
  %35 = sub nsw i32 %33, %34
  %36 = icmp sgt i32 %32, %35
  br i1 %36, label %37, label %40

37:                                               ; preds = %26
  %38 = load i32, ptr %7, align 4, !tbaa !12
  %39 = add nsw i32 %38, 1
  store i32 %39, ptr %7, align 4, !tbaa !12
  br label %40

40:                                               ; preds = %37, %26
  call void @llvm.lifetime.end.p0(i64 8, ptr %12) #3
  call void @llvm.lifetime.end.p0(i64 8, ptr %11) #3
  br label %41

41:                                               ; preds = %40
  %42 = call noundef nonnull align 8 dereferenceable(8) ptr @_ZNSt8__detail20_Node_const_iteratorISt4pairIKN2cv3VecIiLi3EEENS2_5kinfu10VolumeUnitEELb0ELb0EEppEv(ptr noundef nonnull align 8 dereferenceable(8) %9) #3
  br label %23

43:                                               ; preds = %25
  %44 = load i32, ptr %7, align 4, !tbaa !12
  call void @llvm.lifetime.end.p0(i64 4, ptr %7) #3
  ret i32 %44
}