; Function Attrs: mustprogress nofree norecurse nosync nounwind willreturn memory(read, inaccessiblemem: none) uwtable
define hidden noundef i32 @_ZNK2cv5kinfu17HashTSDFVolumeCPU16getVisibleBlocksEii(ptr noundef nonnull readonly align 8 captures(none) dereferenceable(404) %0, i32 noundef %1, i32 noundef %2) unnamed_addr #17 align 2 {
  %4 = getelementptr inbounds nuw i8, ptr %0, i64 264
  %.sroa.08.011 = load ptr, ptr %4, align 8, !tbaa !45
  %.not12 = icmp eq ptr %.sroa.08.011, null
  br i1 %.not12, label %._crit_edge, label %.lr.ph

.lr.ph:                                           ; preds = %3
  %5 = sub nsw i32 %1, %2
  br label %6

._crit_edge:                                      ; preds = %6, %3
  %.0.lcssa = phi i32 [ 0, %3 ], [ %spec.select, %6 ]
  ret i32 %.0.lcssa

6:                                                ; preds = %.lr.ph, %6
  %.sroa.08.014 = phi ptr [ %.sroa.08.011, %.lr.ph ], [ %.sroa.08.0, %6 ]
  %.013 = phi i32 [ 0, %.lr.ph ], [ %spec.select, %6 ]
  %7 = getelementptr inbounds nuw i8, ptr %.sroa.08.014, i64 100
  %8 = load i32, ptr %7, align 4, !tbaa !174
  %9 = icmp sgt i32 %8, %5
  %10 = zext i1 %9 to i32
  %spec.select = add nuw nsw i32 %.013, %10
  %.sroa.08.0 = load ptr, ptr %.sroa.08.014, align 8, !tbaa !45
  %.not = icmp eq ptr %.sroa.08.0, null
  br i1 %.not, label %._crit_edge, label %6
}